; Function Attrs: nounwind uwtable
define internal i32 @filter_frame(ptr noundef readonly captures(none) %0, ptr noundef %1) #1 {
  %3 = alloca ptr, align 8
  %4 = alloca ptr, align 8
  store ptr %1, ptr %3, align 8, !tbaa !112
  %5 = getelementptr inbounds nuw i8, ptr %0, i64 16
  %6 = load ptr, ptr %5, align 8, !tbaa !129
  %7 = getelementptr inbounds nuw i8, ptr %6, i64 56
  %8 = load ptr, ptr %7, align 8, !tbaa !89
  %9 = load ptr, ptr %8, align 8, !tbaa !87
  call void @llvm.lifetime.start.p0(i64 8, ptr nonnull %4) #14
  %10 = call fastcc i32 @scale_frame(ptr noundef %0, ptr noundef %3, ptr noundef %4)
  %11 = load ptr, ptr %4, align 8, !tbaa !112
  %.not = icmp eq ptr %11, null
  br i1 %.not, label %14, label %12

12:                                               ; preds = %2
  %13 = tail call i32 @ff_filter_frame(ptr noundef %9, ptr noundef nonnull %11) #14
  br label %14

14:                                               ; preds = %2, %12
  %.0 = phi i32 [ %13, %12 ], [ %10, %2 ]
  call void @llvm.lifetime.end.p0(i64 8, ptr nonnull %4) #14
  ret i32 %.0
}